Certificate:
    Data:
        Version: 3 (0x2)
        Serial Number: 812 (0x32c)
    Signature Algorithm: sha512WithRSAEncryption
        Issuer: C=IT, O=IGI, CN=Test CA
        Validity
            Not Before: Sep 22 06:07:07 2019 GMT
            Not After : Sep 19 06:07:07 2029 GMT
        Subject: C=IT, O=IGI, CN=*.test.example
        Subject Public Key Info:
            Public Key Algorithm: rsaEncryption
                Public-Key: (2048 bit)
                Modulus:
                    00:bc:ef:f7:e6:7c:81:bb:71:dc:a3:79:75:96:df:
                    d0:c9:5b:91:df:dd:6f:8f:d6:d0:e1:6a:e1:1f:49:
                    41:f1:0c:0b:cb:af:2b:c1:e9:6b:07:06:14:a1:bc:
                    5c:c2:2d:a6:51:11:24:78:e6:2b:65:50:ee:7d:41:
                    6e:24:3c:ec:fb:06:c9:9f:3c:d4:04:0a:0e:33:15:
                    cc:7e:f2:8f:f8:bf:11:b1:b4:43:cb:f9:59:79:bc:
                    9c:39:be:d3:91:5c:12:d8:60:17:df:12:58:61:f8:
                    11:ee:86:ca:98:7d:2b:5a:39:82:30:d9:a6:fc:f8:
                    f4:64:86:0b:9b:a4:b0:73:c6:c9:9a:12:07:e9:9c:
                    04:36:7c:4d:38:21:34:a9:b5:31:c1:9a:45:79:c9:
                    d2:27:ac:69:de:15:b8:79:6b:a7:9b:4f:b3:24:c6:
                    7c:2d:db:46:10:e7:ed:c7:ff:96:24:63:fc:17:47:
                    d7:3b:13:8f:94:97:20:85:6b:68:cc:7c:85:68:3f:
                    48:8b:d1:c3:c6:b0:48:1f:ca:4c:1e:e0:30:b6:f6:
                    0f:a3:73:3d:86:73:ee:c3:e8:e2:2e:cc:ae:74:be:
                    ee:45:f4:22:bf:8e:62:86:c7:c8:6d:f6:e9:96:50:
                    85:fe:b6:fc:07:2e:33:0d:81:b2:b2:8f:9c:de:fc:
                    94:55
                Exponent: 65537 (0x10001)
        X509v3 extensions:
            X509v3 Basic Constraints: critical
                CA:FALSE
            X509v3 Subject Key Identifier: 
                4F:B6:83:0B:F4:96:FB:DD:E9:AB:0A:E9:DF:C2:8C:AE:4B:F6:4B:04
            X509v3 Key Usage: critical
                Digital Signature, Non Repudiation, Key Encipherment
            X509v3 Extended Key Usage: 
                TLS Web Server Authentication, TLS Web Client Authentication, Microsoft Server Gated Crypto, Netscape Server Gated Crypto, E-mail Protection
            X509v3 Authority Key Identifier: 
                keyid:91:77:36:7B:2E:B4:69:F3:27:EA:B7:F6:08:8B:4A:23:A2:11:49:C6

            X509v3 Subject Alternative Name: 
                DNS:*.test.example
    Signature Algorithm: sha512WithRSAEncryption
         16:f8:48:27:37:d7:6d:11:b8:e1:21:53:4a:23:71:55:9b:2a:
         aa:34:ea:45:2a:ad:2a:e2:47:ed:d6:c8:70:5e:11:e8:5e:3a:
         c3:6c:2c:47:d8:a4:c6:13:b8:a8:a6:96:6e:99:99:13:3a:a0:
         8f:40:71:e9:96:ae:8e:15:ce:4b:77:2f:13:0e:ae:93:34:90:
         a4:86:77:16:9c:53:50:21:b5:fa:ca:2d:90:c3:6e:f5:f9:75:
         b6:47:05:5a:d7:67:87:22:31:03:96:ad:60:d0:d0:39:1d:b9:
         ee:17:b4:20:24:67:2f:f0:9b:6c:c6:f8:9a:d3:78:63:56:d0:
         64:bd:7e:1f:d5:e3:f9:b3:6d:c3:62:e7:f5:77:84:2d:3b:e9:
         62:15:13:66:e2:17:8e:f7:f6:46:5f:e5:9e:1b:c7:ea:72:51:
         a7:4d:df:2a:8e:96:69:02:69:17:69:fe:0e:b4:6c:7c:0e:25:
         60:cf:91:e6:b2:b0:a1:a8:4b:ee:03:66:06:98:79:5b:97:f6:
         25:bd:8a:16:24:98:06:32:17:3b:64:76:23:68:88:dd:ee:55:
         32:f9:bb:49:8d:e0:e3:0a:85:98:11:32:fc:5f:12:45:07:a5:
         2d:f3:0a:d3:da:bf:3e:37:84:1b:50:24:fe:81:62:96:b3:b9:
         9a:b1:0e:7a
-----BEGIN CERTIFICATE-----
MIIDmjCCAoKgAwIBAgICAywwDQYJKoZIhvcNAQENBQAwLTELMAkGA1UEBhMCSVQx
DDAKBgNVBAoMA0lHSTEQMA4GA1UEAwwHVGVzdCBDQTAeFw0xOTA5MjIwNjA3MDda
Fw0yOTA5MTkwNjA3MDdaMDQxCzAJBgNVBAYTAklUMQwwCgYDVQQKDANJR0kxFzAV
BgNVBAMMDioudGVzdC5leGFtcGxlMIIBIjANBgkqhkiG9w0BAQEFAAOCAQ8AMIIB
CgKCAQEAvO/35nyBu3Hco3l1lt/QyVuR391vj9bQ4WrhH0lB8QwLy68rwelrBwYU
obxcwi2mUREkeOYrZVDufUFuJDzs+wbJnzzUBAoOMxXMfvKP+L8RsbRDy/lZebyc
Ob7TkVwS2GAX3xJYYfgR7obKmH0rWjmCMNmm/Pj0ZIYLm6Swc8bJmhIH6ZwENnxN
OCE0qbUxwZpFecnSJ6xp3hW4eWunm0+zJMZ8LdtGEOftx/+WJGP8F0fXOxOPlJcg
hWtozHyFaD9Ii9HDxrBIH8pMHuAwtvYPo3M9hnPuw+jiLsyudL7uRfQiv45ihsfI
bfbpllCF/rb8By4zDYGyso+c3vyUVQIDAQABo4G8MIG5MAwGA1UdEwEB/wQCMAAw
HQYDVR0OBBYEFE+2gwv0lvvd6asK6d/CjK5L9ksEMA4GA1UdDwEB/wQEAwIF4DA+
BgNVHSUENzA1BggrBgEFBQcDAQYIKwYBBQUHAwIGCisGAQQBgjcKAwMGCWCGSAGG
+EIEAQYIKwYBBQUHAwQwHwYDVR0jBBgwFoAUkXc2ey60afMn6rf2CItKI6IRScYw
GQYDVR0RBBIwEIIOKi50ZXN0LmV4YW1wbGUwDQYJKoZIhvcNAQENBQADggEBABb4
SCc3120RuOEhU0ojcVWbKqo06kUqrSriR+3WyHBeEeheOsNsLEfYpMYTuKimlm6Z
mRM6oI9AcemWro4Vzkt3LxMOrpM0kKSGdxacU1AhtfrKLZDDbvX5dbZHBVrXZ4ci
MQOWrWDQ0Dkdue4XtCAkZy/wm2zG+JrTeGNW0GS9fh/V4/mzbcNi5/V3hC076WIV
E2biF4739kZf5Z4bx+pyUadN3yqOlmkCaRdp/g60bHwOJWDPkeaysKGoS+4DZgaY
eVuX9iW9ihYkmAYyFztkdiNoiN3uVTL5u0mN4OMKhZgRMvxfEkUHpS3zCtPavz43
hBtQJP6BYpazuZqxDno=
-----END CERTIFICATE-----
